; Function Attrs: mustprogress nounwind uwtable
define void @_ZN7glslang14TParseVersions12requireStageERKNS_10TSourceLocE15EShLanguageMaskPKc(ptr noundef nonnull align 8 dereferenceable(224) %0, ptr noundef nonnull align 8 dereferenceable(24) %1, i32 noundef %2, ptr noundef %3) local_unnamed_addr #0 align 2 {
  %5 = getelementptr inbounds i8, ptr %0, i64 28
  %6 = load i32, ptr %5, align 4
  %7 = shl nuw i32 1, %6
  %8 = and i32 %7, %2
  %9 = icmp eq i32 %8, 0
  br i1 %9, label %10, label %16

10:                                               ; preds = %4
  %11 = icmp ult i32 %6, 14
  br i1 %11, label %switch.lookup, label %StageName.exit

switch.lookup:                                    ; preds = %10
  %12 = zext nneg i32 %6 to i64
  %switch.gep = getelementptr inbounds [14 x ptr], ptr @switch.table._ZN7glslang14TParseVersions19checkExtensionStageERKNS_10TSourceLocEPKc.1, i64 0, i64 %12
  %switch.load = load ptr, ptr %switch.gep, align 8
  br label %StageName.exit

StageName.exit:                                   ; preds = %10, %switch.lookup
  %.0.i = phi ptr [ %switch.load, %switch.lookup ], [ @.str.234, %10 ]
  %13 = load ptr, ptr %0, align 8
  %14 = getelementptr inbounds i8, ptr %13, i64 344
  %15 = load ptr, ptr %14, align 8
  tail call void (ptr, ptr, ptr, ptr, ptr, ...) %15(ptr noundef nonnull align 8 dereferenceable(224) %0, ptr noundef nonnull align 8 dereferenceable(24) %1, ptr noundef nonnull @.str.235, ptr noundef %3, ptr noundef nonnull %.0.i) #15
  br label %16

16:                                               ; preds = %StageName.exit, %4
  ret void
}